target datalayout = "e-m:e-p270:32:32-p271:32:32-p272:64:64-i64:64-i128:128-f80:128-n8:16:32:64-S128"
target triple = "x86_64-pc-linux-gnu"

%struct.vfd = type { i32, i16, ptr, i32, i32, i32, i64, ptr, i32, i32 }

@.str.1 = private unnamed_addr constant [5 x i8] c"fd.c\00", align 1
@VfdCache = internal global ptr null, align 8
@.str.12 = private unnamed_addr constant [47 x i8] c"out of file descriptors: %m; release and retry\00", align 1
@__func__.BasicOpenFilePerm = private unnamed_addr constant [18 x i8] c"BasicOpenFilePerm\00", align 1
@nfile = internal global i32 0, align 4

; Function Attrs: nounwind uwtable
define internal zeroext i1 @ReleaseLruFile() #0 {
  %1 = alloca i1, align 1
  %2 = load i32, ptr @nfile, align 4
  %3 = icmp sgt i32 %2, 0
  br i1 %3, label %4, label %9

4:                                                ; preds = %0
  %5 = load ptr, ptr @VfdCache, align 8
  %6 = getelementptr inbounds %struct.vfd, ptr %5, i64 0
  %7 = getelementptr inbounds nuw %struct.vfd, ptr %6, i32 0, i32 4
  %8 = load i32, ptr %7, align 4
  call void @LruDelete(i32 noundef %8)
  store i1 true, ptr %1, align 1
  br label %10

9:                                                ; preds = %0
  store i1 false, ptr %1, align 1
  br label %10

10:                                               ; preds = %9, %4
  %11 = load i1, ptr %1, align 1
  ret i1 %11
}

; Function Attrs: nounwind uwtable
define dso_local i32 @BasicOpenFilePerm(ptr noundef %0, i32 noundef %1, i32 noundef %2) #0 {
  %4 = alloca i32, align 4
  %5 = alloca ptr, align 8
  %6 = alloca i32, align 4
  %7 = alloca i32, align 4
  %8 = alloca i32, align 4
  %9 = alloca i32, align 4
  %10 = alloca i32, align 4
  store ptr %0, ptr %5, align 8
  store i32 %1, ptr %6, align 4
  store i32 %2, ptr %7, align 4
  call void @llvm.lifetime.start.p0(i64 4, ptr %8) #14
  br label %11

11:                                               ; preds = %48, %3
  %12 = load ptr, ptr %5, align 8
  %13 = load i32, ptr %6, align 4
  %14 = load i32, ptr %7, align 4
  %15 = call i32 (ptr, i32, ...) @open(ptr noundef %12, i32 noundef %13, i32 noundef %14)
  store i32 %15, ptr %8, align 4
  %16 = load i32, ptr %8, align 4
  %17 = icmp sge i32 %16, 0
  br i1 %17, label %18, label %20

18:                                               ; preds = %11
  %19 = load i32, ptr %8, align 4
  store i32 %19, ptr %4, align 4
  store i32 1, ptr %9, align 4
  br label %52

20:                                               ; preds = %11
  %21 = call ptr @__errno_location() #15
  %22 = load i32, ptr %21, align 4
  %23 = icmp eq i32 %22, 24
  br i1 %23, label %28, label %24

24:                                               ; preds = %20
  %25 = call ptr @__errno_location() #15
  %26 = load i32, ptr %25, align 4
  %27 = icmp eq i32 %26, 23
  br i1 %27, label %28, label %51

28:                                               ; preds = %24, %20
  call void @llvm.lifetime.start.p0(i64 4, ptr %10) #14
  %29 = call ptr @__errno_location() #15
  %30 = load i32, ptr %29, align 4
  store i32 %30, ptr %10, align 4
  br label %31

31:                                               ; preds = %28
  br i1 false, label %32, label %34

32:                                               ; preds = %31
  %33 = call zeroext i1 @errstart_cold(i32 noundef 15, ptr noundef null) #16
  br i1 %33, label %36, label %39

34:                                               ; preds = %31
  %35 = call zeroext i1 @errstart(i32 noundef 15, ptr noundef null)
  br i1 %35, label %36, label %39

36:                                               ; preds = %34, %32
  %37 = call i32 @errcode(i32 noundef 197)
  %38 = call i32 (ptr, ...) @errmsg(ptr noundef @.str.12)
  call void @errfinish(ptr noundef @.str.1, i32 noundef 1161, ptr noundef @__func__.BasicOpenFilePerm)
  br label %39

39:                                               ; preds = %36, %34, %32
  br label %40

40:                                               ; preds = %39
  br label %41

41:                                               ; preds = %40
  %42 = call ptr @__errno_location() #15
  store i32 0, ptr %42, align 4
  %43 = call zeroext i1 @ReleaseLruFile()
  br i1 %43, label %44, label %45

44:                                               ; preds = %41
  store i32 2, ptr %9, align 4
  br label %48

45:                                               ; preds = %41
  %46 = load i32, ptr %10, align 4
  %47 = call ptr @__errno_location() #15
  store i32 %46, ptr %47, align 4
  store i32 0, ptr %9, align 4
  br label %48

48:                                               ; preds = %45, %44
  call void @llvm.lifetime.end.p0(i64 4, ptr %10) #14
  %49 = load i32, ptr %9, align 4
  switch i32 %49, label %54 [
    i32 0, label %50
    i32 2, label %11
  ]

50:                                               ; preds = %48
  br label %51

51:                                               ; preds = %50, %24
  store i32 -1, ptr %4, align 4
  store i32 1, ptr %9, align 4
  br label %52

52:                                               ; preds = %51, %18
  call void @llvm.lifetime.end.p0(i64 4, ptr %8) #14
  %53 = load i32, ptr %4, align 4
  ret i32 %53

54:                                               ; preds = %48
  unreachable
}