; Function Attrs: nounwind uwtable
define dso_local range(i32 -1, -2147483648) i32 @BasicOpenFilePerm(ptr noundef readonly captures(none) %0, i32 noundef %1, i32 noundef %2) local_unnamed_addr #0 {
  %4 = tail call i32 (ptr, i32, ...) @open(ptr noundef %0, i32 noundef %1, i32 noundef %2) #25
  %5 = icmp sgt i32 %4, -1
  br i1 %5, label %.loopexit, label %.lr.ph

.lr.ph:                                           ; preds = %3
  %6 = tail call ptr @__errno_location() #26
  br label %7

7:                                                ; preds = %.lr.ph, %17
  %8 = load i32, ptr %6, align 4
  %.off = add i32 %8, -23
  %switch10 = icmp ult i32 %.off, 2
  br i1 %switch10, label %9, label %.loopexit

9:                                                ; preds = %7
  %10 = tail call zeroext i1 @errstart(i32 noundef 15, ptr noundef null) #25
  br i1 %10, label %11, label %14

11:                                               ; preds = %9
  %12 = tail call i32 @errcode(i32 noundef 197) #25
  %13 = tail call i32 (ptr, ...) @errmsg(ptr noundef nonnull @.str.12) #25
  tail call void @errfinish(ptr noundef nonnull @.str.1, i32 noundef 1161, ptr noundef nonnull @__func__.BasicOpenFilePerm) #25
  br label %14

14:                                               ; preds = %11, %9
  store i32 0, ptr %6, align 4
  %15 = load i32, ptr @nfile, align 4
  %16 = icmp sgt i32 %15, 0
  br i1 %16, label %17, label %.thread

.thread:                                          ; preds = %14
  store i32 %8, ptr %6, align 4
  br label %.loopexit

17:                                               ; preds = %14
  %18 = load ptr, ptr @VfdCache, align 8
  %19 = getelementptr inbounds nuw i8, ptr %18, i64 20
  %20 = load i32, ptr %19, align 4
  tail call fastcc void @LruDelete(i32 noundef %20)
  %21 = tail call i32 (ptr, i32, ...) @open(ptr noundef %0, i32 noundef %1, i32 noundef %2) #25
  %22 = icmp sgt i32 %21, -1
  br i1 %22, label %.loopexit, label %7

.loopexit:                                        ; preds = %17, %7, %3, %.thread
  %.0 = phi i32 [ -1, %.thread ], [ %4, %3 ], [ %21, %17 ], [ -1, %7 ]
  ret i32 %.0
}